; Function Attrs: nounwind uwtable
define range(i32 0, 2) i32 @set_override_bio_err(ptr noundef %0) local_unnamed_addr #0 {
  %2 = tail call ptr @CRYPTO_THREAD_get_local(ptr noundef nonnull @local_test_data) #3
  %.not.i = icmp eq ptr %2, null
  br i1 %.not.i, label %3, label %get_local_test_data.exit

3:                                                ; preds = %1
  %4 = tail call noalias ptr @CRYPTO_zalloc(i64 noundef 16, ptr noundef nonnull @.str.2, i32 noundef 61) #3
  %5 = icmp eq ptr %4, null
  br i1 %5, label %get_local_test_data.exit.thread, label %6

6:                                                ; preds = %3
  %7 = tail call i32 @CRYPTO_THREAD_set_local(ptr noundef nonnull @local_test_data, ptr noundef nonnull %4) #3
  %.not8.i = icmp eq i32 %7, 0
  br i1 %.not8.i, label %8, label %get_local_test_data.exit

8:                                                ; preds = %6
  tail call void @CRYPTO_free(ptr noundef nonnull %4, ptr noundef nonnull @.str.2, i32 noundef 65) #3
  br label %get_local_test_data.exit.thread

get_local_test_data.exit:                         ; preds = %6, %1
  %.0.i = phi ptr [ %2, %1 ], [ %4, %6 ]
  %9 = getelementptr inbounds nuw i8, ptr %.0.i, i64 8
  store ptr %0, ptr %9, align 8, !tbaa !9
  br label %get_local_test_data.exit.thread

get_local_test_data.exit.thread:                  ; preds = %3, %8, %get_local_test_data.exit
  %.0 = phi i32 [ 1, %get_local_test_data.exit ], [ 0, %8 ], [ 0, %3 ]
  ret i32 %.0
}